; Function Attrs: mustprogress uwtable
define hidden noundef ptr @_ZN7datalog18check_table_plugin11mk_union_fnERKNS_10table_baseES3_PS2_(ptr noundef nonnull align 8 dereferenceable(52) %this, ptr noundef nonnull align 8 dereferenceable(36) %tgt, ptr noundef nonnull align 8 dereferenceable(36) %src, ptr noundef %delta) unnamed_addr #3 align 2 {
entry:
  %m_plugin.i.i = getelementptr inbounds i8, ptr %tgt, i64 8
  %0 = load ptr, ptr %m_plugin.i.i, align 8
  %cmp.i = icmp eq ptr %0, %this
  %m_plugin.i.i7 = getelementptr inbounds i8, ptr %src, i64 8
  %1 = load ptr, ptr %m_plugin.i.i7, align 8
  %cmp.i8 = icmp eq ptr %1, %this
  %or.cond = select i1 %cmp.i, i1 %cmp.i8, i1 false
  br i1 %or.cond, label %lor.lhs.false3, label %return

lor.lhs.false3:                                   ; preds = %entry
  %tobool.not = icmp eq ptr %delta, null
  br i1 %tobool.not, label %lor.lhs.false3.split, label %land.lhs.true

lor.lhs.false3.split:                             ; preds = %lor.lhs.false3
  %call55 = tail call noalias noundef ptr @_ZN6memory8allocateEm(i64 noundef 24)
  tail call void @_ZN7datalog18check_table_plugin8union_fnC2ERS0_RKNS_10table_baseES5_PS4_(ptr noundef nonnull align 8 dereferenceable(24) %call55, ptr noundef nonnull align 8 dereferenceable(52) %this, ptr noundef nonnull align 8 dereferenceable(36) %tgt, ptr noundef nonnull align 8 dereferenceable(36) %src, ptr noundef null)
  br label %return

land.lhs.true:                                    ; preds = %lor.lhs.false3
  %m_plugin.i.i9 = getelementptr inbounds i8, ptr %delta, i64 8
  %2 = load ptr, ptr %m_plugin.i.i9, align 8
  %cmp.i10 = icmp eq ptr %2, %this
  br i1 %cmp.i10, label %land.lhs.true.split, label %return

land.lhs.true.split:                              ; preds = %land.lhs.true
  %call56 = tail call noalias noundef ptr @_ZN6memory8allocateEm(i64 noundef 24)
  tail call void @_ZN7datalog18check_table_plugin8union_fnC2ERS0_RKNS_10table_baseES5_PS4_(ptr noundef nonnull align 8 dereferenceable(24) %call56, ptr noundef nonnull align 8 dereferenceable(52) %this, ptr noundef nonnull align 8 dereferenceable(36) %tgt, ptr noundef nonnull align 8 dereferenceable(36) %src, ptr noundef nonnull %delta)
  br label %return

return:                                           ; preds = %lor.lhs.false3.split, %land.lhs.true.split, %entry, %land.lhs.true
  %retval.0 = phi ptr [ null, %land.lhs.true ], [ null, %entry ], [ %call55, %lor.lhs.false3.split ], [ %call56, %land.lhs.true.split ]
  ret ptr %retval.0
}